target datalayout = "e-m:e-p270:32:32-p271:32:32-p272:64:64-i64:64-i128:128-f80:128-n8:16:32:64-S128"
target triple = "x86_64-pc-linux-gnu"

%struct.Tuplestorestate = type { i32, i32, i8, i8, i8, i8, i64, i64, i64, i64, ptr, ptr, ptr, ptr, ptr, ptr, ptr, i32, i32, i32, i8, ptr, i32, i32, i32, i32, i64 }
%struct.TSReadPointer = type { i32, i8, i32, i32, i64 }

; Function Attrs: nounwind uwtable
define internal void @tuplestore_updatemax(ptr noundef %0) #0 {
  %2 = alloca ptr, align 8
  store ptr %0, ptr %2, align 8
  %3 = load ptr, ptr %2, align 8
  %4 = getelementptr inbounds nuw %struct.Tuplestorestate, ptr %3, i32 0, i32 0
  %5 = load i32, ptr %4, align 8
  %6 = icmp eq i32 %5, 0
  br i1 %6, label %7, label %35

7:                                                ; preds = %1
  %8 = load ptr, ptr %2, align 8
  %9 = getelementptr inbounds nuw %struct.Tuplestorestate, ptr %8, i32 0, i32 6
  %10 = load i64, ptr %9, align 8
  %11 = load ptr, ptr %2, align 8
  %12 = getelementptr inbounds nuw %struct.Tuplestorestate, ptr %11, i32 0, i32 8
  %13 = load i64, ptr %12, align 8
  %14 = load ptr, ptr %2, align 8
  %15 = getelementptr inbounds nuw %struct.Tuplestorestate, ptr %14, i32 0, i32 7
  %16 = load i64, ptr %15, align 8
  %17 = sub i64 %13, %16
  %18 = icmp sgt i64 %10, %17
  br i1 %18, label %19, label %23

19:                                               ; preds = %7
  %20 = load ptr, ptr %2, align 8
  %21 = getelementptr inbounds nuw %struct.Tuplestorestate, ptr %20, i32 0, i32 6
  %22 = load i64, ptr %21, align 8
  br label %31

23:                                               ; preds = %7
  %24 = load ptr, ptr %2, align 8
  %25 = getelementptr inbounds nuw %struct.Tuplestorestate, ptr %24, i32 0, i32 8
  %26 = load i64, ptr %25, align 8
  %27 = load ptr, ptr %2, align 8
  %28 = getelementptr inbounds nuw %struct.Tuplestorestate, ptr %27, i32 0, i32 7
  %29 = load i64, ptr %28, align 8
  %30 = sub i64 %26, %29
  br label %31

31:                                               ; preds = %23, %19
  %32 = phi i64 [ %22, %19 ], [ %30, %23 ]
  %33 = load ptr, ptr %2, align 8
  %34 = getelementptr inbounds nuw %struct.Tuplestorestate, ptr %33, i32 0, i32 6
  store i64 %32, ptr %34, align 8
  br label %59

35:                                               ; preds = %1
  %36 = load ptr, ptr %2, align 8
  %37 = getelementptr inbounds nuw %struct.Tuplestorestate, ptr %36, i32 0, i32 6
  %38 = load i64, ptr %37, align 8
  %39 = load ptr, ptr %2, align 8
  %40 = getelementptr inbounds nuw %struct.Tuplestorestate, ptr %39, i32 0, i32 10
  %41 = load ptr, ptr %40, align 8
  %42 = call i64 @BufFileSize(ptr noundef %41)
  %43 = icmp sgt i64 %38, %42
  br i1 %43, label %44, label %48

44:                                               ; preds = %35
  %45 = load ptr, ptr %2, align 8
  %46 = getelementptr inbounds nuw %struct.Tuplestorestate, ptr %45, i32 0, i32 6
  %47 = load i64, ptr %46, align 8
  br label %53

48:                                               ; preds = %35
  %49 = load ptr, ptr %2, align 8
  %50 = getelementptr inbounds nuw %struct.Tuplestorestate, ptr %49, i32 0, i32 10
  %51 = load ptr, ptr %50, align 8
  %52 = call i64 @BufFileSize(ptr noundef %51)
  br label %53

53:                                               ; preds = %48, %44
  %54 = phi i64 [ %47, %44 ], [ %52, %48 ]
  %55 = load ptr, ptr %2, align 8
  %56 = getelementptr inbounds nuw %struct.Tuplestorestate, ptr %55, i32 0, i32 6
  store i64 %54, ptr %56, align 8
  %57 = load ptr, ptr %2, align 8
  %58 = getelementptr inbounds nuw %struct.Tuplestorestate, ptr %57, i32 0, i32 5
  store i8 1, ptr %58, align 1
  br label %59

59:                                               ; preds = %53, %31
  ret void
}

; Function Attrs: nounwind uwtable
define dso_local void @tuplestore_trim(ptr noundef %0) #0 {
  %2 = alloca ptr, align 8
  %3 = alloca i32, align 4
  %4 = alloca i32, align 4
  %5 = alloca i32, align 4
  %6 = alloca i32, align 4
  store ptr %0, ptr %2, align 8
  call void @llvm.lifetime.start.p0(i64 4, ptr %3) #7
  call void @llvm.lifetime.start.p0(i64 4, ptr %4) #7
  call void @llvm.lifetime.start.p0(i64 4, ptr %5) #7
  %7 = load ptr, ptr %2, align 8
  %8 = getelementptr inbounds nuw %struct.Tuplestorestate, ptr %7, i32 0, i32 1
  %9 = load i32, ptr %8, align 4
  %10 = and i32 %9, 4
  %11 = icmp ne i32 %10, 0
  br i1 %11, label %12, label %13

12:                                               ; preds = %1
  store i32 1, ptr %6, align 4
  br label %200

13:                                               ; preds = %1
  %14 = load ptr, ptr %2, align 8
  %15 = getelementptr inbounds nuw %struct.Tuplestorestate, ptr %14, i32 0, i32 0
  %16 = load i32, ptr %15, align 8
  %17 = icmp ne i32 %16, 0
  br i1 %17, label %18, label %19

18:                                               ; preds = %13
  store i32 1, ptr %6, align 4
  br label %200

19:                                               ; preds = %13
  %20 = load ptr, ptr %2, align 8
  %21 = getelementptr inbounds nuw %struct.Tuplestorestate, ptr %20, i32 0, i32 18
  %22 = load i32, ptr %21, align 4
  store i32 %22, ptr %3, align 4
  store i32 0, ptr %5, align 4
  br label %23

23:                                               ; preds = %64, %19
  %24 = load i32, ptr %5, align 4
  %25 = load ptr, ptr %2, align 8
  %26 = getelementptr inbounds nuw %struct.Tuplestorestate, ptr %25, i32 0, i32 23
  %27 = load i32, ptr %26, align 4
  %28 = icmp slt i32 %24, %27
  br i1 %28, label %29, label %67

29:                                               ; preds = %23
  %30 = load ptr, ptr %2, align 8
  %31 = getelementptr inbounds nuw %struct.Tuplestorestate, ptr %30, i32 0, i32 21
  %32 = load ptr, ptr %31, align 8
  %33 = load i32, ptr %5, align 4
  %34 = sext i32 %33 to i64
  %35 = getelementptr inbounds %struct.TSReadPointer, ptr %32, i64 %34
  %36 = getelementptr inbounds nuw %struct.TSReadPointer, ptr %35, i32 0, i32 1
  %37 = load i8, ptr %36, align 4, !range !4, !noundef !5
  %38 = trunc i8 %37 to i1
  br i1 %38, label %63, label %39

39:                                               ; preds = %29
  %40 = load i32, ptr %3, align 4
  %41 = load ptr, ptr %2, align 8
  %42 = getelementptr inbounds nuw %struct.Tuplestorestate, ptr %41, i32 0, i32 21
  %43 = load ptr, ptr %42, align 8
  %44 = load i32, ptr %5, align 4
  %45 = sext i32 %44 to i64
  %46 = getelementptr inbounds %struct.TSReadPointer, ptr %43, i64 %45
  %47 = getelementptr inbounds nuw %struct.TSReadPointer, ptr %46, i32 0, i32 2
  %48 = load i32, ptr %47, align 8
  %49 = icmp slt i32 %40, %48
  br i1 %49, label %50, label %52

50:                                               ; preds = %39
  %51 = load i32, ptr %3, align 4
  br label %61

52:                                               ; preds = %39
  %53 = load ptr, ptr %2, align 8
  %54 = getelementptr inbounds nuw %struct.Tuplestorestate, ptr %53, i32 0, i32 21
  %55 = load ptr, ptr %54, align 8
  %56 = load i32, ptr %5, align 4
  %57 = sext i32 %56 to i64
  %58 = getelementptr inbounds %struct.TSReadPointer, ptr %55, i64 %57
  %59 = getelementptr inbounds nuw %struct.TSReadPointer, ptr %58, i32 0, i32 2
  %60 = load i32, ptr %59, align 8
  br label %61

61:                                               ; preds = %52, %50
  %62 = phi i32 [ %51, %50 ], [ %60, %52 ]
  store i32 %62, ptr %3, align 4
  br label %63

63:                                               ; preds = %61, %29
  br label %64

64:                                               ; preds = %63
  %65 = load i32, ptr %5, align 4
  %66 = add i32 %65, 1
  store i32 %66, ptr %5, align 4
  br label %23, !llvm.loop !14

67:                                               ; preds = %23
  %68 = load i32, ptr %3, align 4
  %69 = sub i32 %68, 1
  store i32 %69, ptr %4, align 4
  %70 = load i32, ptr %4, align 4
  %71 = icmp sle i32 %70, 0
  br i1 %71, label %72, label %73

72:                                               ; preds = %67
  store i32 1, ptr %6, align 4
  br label %200

73:                                               ; preds = %67
  %74 = load ptr, ptr %2, align 8
  call void @tuplestore_updatemax(ptr noundef %74)
  %75 = load ptr, ptr %2, align 8
  %76 = getelementptr inbounds nuw %struct.Tuplestorestate, ptr %75, i32 0, i32 17
  %77 = load i32, ptr %76, align 8
  store i32 %77, ptr %5, align 4
  br label %78

78:                                               ; preds = %108, %73
  %79 = load i32, ptr %5, align 4
  %80 = load i32, ptr %4, align 4
  %81 = icmp slt i32 %79, %80
  br i1 %81, label %82, label %111

82:                                               ; preds = %78
  %83 = load ptr, ptr %2, align 8
  %84 = getelementptr inbounds nuw %struct.Tuplestorestate, ptr %83, i32 0, i32 16
  %85 = load ptr, ptr %84, align 8
  %86 = load i32, ptr %5, align 4
  %87 = sext i32 %86 to i64
  %88 = getelementptr inbounds ptr, ptr %85, i64 %87
  %89 = load ptr, ptr %88, align 8
  %90 = call i64 @GetMemoryChunkSpace(ptr noundef %89)
  %91 = load ptr, ptr %2, align 8
  %92 = getelementptr inbounds nuw %struct.Tuplestorestate, ptr %91, i32 0, i32 7
  %93 = load i64, ptr %92, align 8
  %94 = add i64 %93, %90
  store i64 %94, ptr %92, align 8
  %95 = load ptr, ptr %2, align 8
  %96 = getelementptr inbounds nuw %struct.Tuplestorestate, ptr %95, i32 0, i32 16
  %97 = load ptr, ptr %96, align 8
  %98 = load i32, ptr %5, align 4
  %99 = sext i32 %98 to i64
  %100 = getelementptr inbounds ptr, ptr %97, i64 %99
  %101 = load ptr, ptr %100, align 8
  call void @pfree(ptr noundef %101)
  %102 = load ptr, ptr %2, align 8
  %103 = getelementptr inbounds nuw %struct.Tuplestorestate, ptr %102, i32 0, i32 16
  %104 = load ptr, ptr %103, align 8
  %105 = load i32, ptr %5, align 4
  %106 = sext i32 %105 to i64
  %107 = getelementptr inbounds ptr, ptr %104, i64 %106
  store ptr null, ptr %107, align 8
  br label %108

108:                                              ; preds = %82
  %109 = load i32, ptr %5, align 4
  %110 = add i32 %109, 1
  store i32 %110, ptr %5, align 4
  br label %78, !llvm.loop !15

111:                                              ; preds = %78
  %112 = load i32, ptr %4, align 4
  %113 = load ptr, ptr %2, align 8
  %114 = getelementptr inbounds nuw %struct.Tuplestorestate, ptr %113, i32 0, i32 17
  store i32 %112, ptr %114, align 8
  %115 = load ptr, ptr %2, align 8
  %116 = getelementptr inbounds nuw %struct.Tuplestorestate, ptr %115, i32 0, i32 4
  store i8 1, ptr %116, align 2
  %117 = load i32, ptr %4, align 4
  %118 = load ptr, ptr %2, align 8
  %119 = getelementptr inbounds nuw %struct.Tuplestorestate, ptr %118, i32 0, i32 18
  %120 = load i32, ptr %119, align 4
  %121 = sdiv i32 %120, 8
  %122 = icmp slt i32 %117, %121
  br i1 %122, label %123, label %124

123:                                              ; preds = %111
  store i32 1, ptr %6, align 4
  br label %200

124:                                              ; preds = %111
  %125 = load i32, ptr %4, align 4
  %126 = add i32 %125, 1
  %127 = load ptr, ptr %2, align 8
  %128 = getelementptr inbounds nuw %struct.Tuplestorestate, ptr %127, i32 0, i32 18
  %129 = load i32, ptr %128, align 4
  %130 = icmp eq i32 %126, %129
  br i1 %130, label %131, label %143

131:                                              ; preds = %124
  %132 = load ptr, ptr %2, align 8
  %133 = getelementptr inbounds nuw %struct.Tuplestorestate, ptr %132, i32 0, i32 16
  %134 = load ptr, ptr %133, align 8
  %135 = load i32, ptr %4, align 4
  %136 = sext i32 %135 to i64
  %137 = getelementptr inbounds ptr, ptr %134, i64 %136
  %138 = load ptr, ptr %137, align 8
  %139 = load ptr, ptr %2, align 8
  %140 = getelementptr inbounds nuw %struct.Tuplestorestate, ptr %139, i32 0, i32 16
  %141 = load ptr, ptr %140, align 8
  %142 = getelementptr inbounds ptr, ptr %141, i64 0
  store ptr %138, ptr %142, align 8
  br label %160

143:                                              ; preds = %124
  %144 = load ptr, ptr %2, align 8
  %145 = getelementptr inbounds nuw %struct.Tuplestorestate, ptr %144, i32 0, i32 16
  %146 = load ptr, ptr %145, align 8
  %147 = load ptr, ptr %2, align 8
  %148 = getelementptr inbounds nuw %struct.Tuplestorestate, ptr %147, i32 0, i32 16
  %149 = load ptr, ptr %148, align 8
  %150 = load i32, ptr %4, align 4
  %151 = sext i32 %150 to i64
  %152 = getelementptr inbounds ptr, ptr %149, i64 %151
  %153 = load ptr, ptr %2, align 8
  %154 = getelementptr inbounds nuw %struct.Tuplestorestate, ptr %153, i32 0, i32 18
  %155 = load i32, ptr %154, align 4
  %156 = load i32, ptr %4, align 4
  %157 = sub i32 %155, %156
  %158 = sext i32 %157 to i64
  %159 = mul i64 %158, 8
  call void @llvm.memmove.p0.p0.i64(ptr align 8 %146, ptr align 8 %152, i64 %159, i1 false)
  br label %160

160:                                              ; preds = %143, %131
  %161 = load ptr, ptr %2, align 8
  %162 = getelementptr inbounds nuw %struct.Tuplestorestate, ptr %161, i32 0, i32 17
  store i32 0, ptr %162, align 8
  %163 = load i32, ptr %4, align 4
  %164 = load ptr, ptr %2, align 8
  %165 = getelementptr inbounds nuw %struct.Tuplestorestate, ptr %164, i32 0, i32 18
  %166 = load i32, ptr %165, align 4
  %167 = sub i32 %166, %163
  store i32 %167, ptr %165, align 4
  store i32 0, ptr %5, align 4
  br label %168

168:                                              ; preds = %196, %160
  %169 = load i32, ptr %5, align 4
  %170 = load ptr, ptr %2, align 8
  %171 = getelementptr inbounds nuw %struct.Tuplestorestate, ptr %170, i32 0, i32 23
  %172 = load i32, ptr %171, align 4
  %173 = icmp slt i32 %169, %172
  br i1 %173, label %174, label %199

174:                                              ; preds = %168
  %175 = load ptr, ptr %2, align 8
  %176 = getelementptr inbounds nuw %struct.Tuplestorestate, ptr %175, i32 0, i32 21
  %177 = load ptr, ptr %176, align 8
  %178 = load i32, ptr %5, align 4
  %179 = sext i32 %178 to i64
  %180 = getelementptr inbounds %struct.TSReadPointer, ptr %177, i64 %179
  %181 = getelementptr inbounds nuw %struct.TSReadPointer, ptr %180, i32 0, i32 1
  %182 = load i8, ptr %181, align 4, !range !4, !noundef !5
  %183 = trunc i8 %182 to i1
  br i1 %183, label %195, label %184

184:                                              ; preds = %174
  %185 = load i32, ptr %4, align 4
  %186 = load ptr, ptr %2, align 8
  %187 = getelementptr inbounds nuw %struct.Tuplestorestate, ptr %186, i32 0, i32 21
  %188 = load ptr, ptr %187, align 8
  %189 = load i32, ptr %5, align 4
  %190 = sext i32 %189 to i64
  %191 = getelementptr inbounds %struct.TSReadPointer, ptr %188, i64 %190
  %192 = getelementptr inbounds nuw %struct.TSReadPointer, ptr %191, i32 0, i32 2
  %193 = load i32, ptr %192, align 8
  %194 = sub i32 %193, %185
  store i32 %194, ptr %192, align 8
  br label %195

195:                                              ; preds = %184, %174
  br label %196

196:                                              ; preds = %195
  %197 = load i32, ptr %5, align 4
  %198 = add i32 %197, 1
  store i32 %198, ptr %5, align 4
  br label %168, !llvm.loop !16

199:                                              ; preds = %168
  store i32 0, ptr %6, align 4
  br label %200

200:                                              ; preds = %199, %123, %72, %18, %12
  call void @llvm.lifetime.end.p0(i64 4, ptr %5) #7
  call void @llvm.lifetime.end.p0(i64 4, ptr %4) #7
  call void @llvm.lifetime.end.p0(i64 4, ptr %3) #7
  %201 = load i32, ptr %6, align 4
  switch i32 %201, label %203 [
    i32 0, label %202
    i32 1, label %202
  ]

202:                                              ; preds = %200, %200
  ret void

203:                                              ; preds = %200
  unreachable
}