; Function Attrs: nounwind uwtable
define dso_local void @tuplestore_trim(ptr noundef captures(none) %0) local_unnamed_addr #0 {
  %2 = getelementptr inbounds nuw i8, ptr %0, i64 4
  %3 = load i32, ptr %2, align 4
  %4 = and i32 %3, 4
  %.not = icmp eq i32 %4, 0
  br i1 %.not, label %5, label %.loopexit

5:                                                ; preds = %1
  %6 = load i32, ptr %0, align 8
  %.not58 = icmp eq i32 %6, 0
  br i1 %.not58, label %7, label %.loopexit

7:                                                ; preds = %5
  %8 = getelementptr inbounds nuw i8, ptr %0, i64 108
  %9 = load i32, ptr %8, align 4
  %10 = getelementptr inbounds nuw i8, ptr %0, i64 132
  %11 = load i32, ptr %10, align 4
  %12 = icmp sgt i32 %11, 0
  br i1 %12, label %.lr.ph, label %._crit_edge

.lr.ph:                                           ; preds = %7
  %13 = getelementptr inbounds nuw i8, ptr %0, i64 120
  %14 = load ptr, ptr %13, align 8
  %wide.trip.count = zext nneg i32 %11 to i64
  br label %15

15:                                               ; preds = %.lr.ph, %23
  %indvars.iv = phi i64 [ 0, %.lr.ph ], [ %indvars.iv.next, %23 ]
  %.05359 = phi i32 [ %9, %.lr.ph ], [ %.154, %23 ]
  %16 = getelementptr inbounds nuw %struct.TSReadPointer, ptr %14, i64 %indvars.iv
  %17 = getelementptr inbounds nuw i8, ptr %16, i64 4
  %18 = load i8, ptr %17, align 4, !range !4, !noundef !5
  %19 = trunc nuw i8 %18 to i1
  br i1 %19, label %23, label %20

20:                                               ; preds = %15
  %21 = getelementptr inbounds nuw i8, ptr %16, i64 8
  %22 = load i32, ptr %21, align 8
  %.053. = tail call i32 @llvm.smin.i32(i32 %.05359, i32 %22)
  br label %23

23:                                               ; preds = %15, %20
  %.154 = phi i32 [ %.05359, %15 ], [ %.053., %20 ]
  %indvars.iv.next = add nuw nsw i64 %indvars.iv, 1
  %exitcond.not = icmp eq i64 %indvars.iv.next, %wide.trip.count
  br i1 %exitcond.not, label %._crit_edge, label %15, !llvm.loop !16

._crit_edge:                                      ; preds = %23, %7
  %.053.lcssa = phi i32 [ %9, %7 ], [ %.154, %23 ]
  %24 = add i32 %.053.lcssa, -1
  %25 = icmp slt i32 %24, 1
  br i1 %25, label %.loopexit, label %tuplestore_updatemax.exit

tuplestore_updatemax.exit:                        ; preds = %._crit_edge
  %26 = getelementptr inbounds nuw i8, ptr %0, i64 16
  %27 = load i64, ptr %26, align 8
  %28 = getelementptr inbounds nuw i8, ptr %0, i64 32
  %29 = load i64, ptr %28, align 8
  %30 = getelementptr inbounds nuw i8, ptr %0, i64 24
  %31 = load i64, ptr %30, align 8
  %32 = sub i64 %29, %31
  %..i = tail call i64 @llvm.smax.i64(i64 %27, i64 %32)
  store i64 %..i, ptr %26, align 8
  %33 = getelementptr inbounds nuw i8, ptr %0, i64 104
  %34 = load i32, ptr %33, align 8
  %35 = icmp slt i32 %34, %24
  br i1 %35, label %.lr.ph62, label %._crit_edge63

.lr.ph62:                                         ; preds = %tuplestore_updatemax.exit
  %36 = getelementptr inbounds nuw i8, ptr %0, i64 96
  %37 = sext i32 %34 to i64
  br label %38

38:                                               ; preds = %.lr.ph62, %38
  %indvars.iv68 = phi i64 [ %37, %.lr.ph62 ], [ %indvars.iv.next69, %38 ]
  %39 = load ptr, ptr %36, align 8
  %40 = getelementptr inbounds ptr, ptr %39, i64 %indvars.iv68
  %41 = load ptr, ptr %40, align 8
  %42 = tail call i64 @GetMemoryChunkSpace(ptr noundef %41) #9
  %43 = load i64, ptr %30, align 8
  %44 = add i64 %43, %42
  store i64 %44, ptr %30, align 8
  %45 = load ptr, ptr %36, align 8
  %46 = getelementptr inbounds ptr, ptr %45, i64 %indvars.iv68
  %47 = load ptr, ptr %46, align 8
  tail call void @pfree(ptr noundef %47) #9
  %48 = load ptr, ptr %36, align 8
  %49 = getelementptr inbounds ptr, ptr %48, i64 %indvars.iv68
  store ptr null, ptr %49, align 8
  %indvars.iv.next69 = add nsw i64 %indvars.iv68, 1
  %lftr.wideiv = trunc i64 %indvars.iv.next69 to i32
  %exitcond71.not = icmp eq i32 %24, %lftr.wideiv
  br i1 %exitcond71.not, label %._crit_edge63.loopexit, label %38, !llvm.loop !17

._crit_edge63.loopexit:                           ; preds = %38
  %.pre = load i32, ptr %8, align 4
  br label %._crit_edge63

._crit_edge63:                                    ; preds = %._crit_edge63.loopexit, %tuplestore_updatemax.exit
  %50 = phi i32 [ %.pre, %._crit_edge63.loopexit ], [ %9, %tuplestore_updatemax.exit ]
  store i32 %24, ptr %33, align 8
  %51 = getelementptr inbounds nuw i8, ptr %0, i64 10
  store i8 1, ptr %51, align 2
  %52 = sdiv i32 %50, 8
  %53 = icmp slt i32 %24, %52
  br i1 %53, label %.loopexit, label %54

54:                                               ; preds = %._crit_edge63
  %55 = icmp eq i32 %.053.lcssa, %50
  %56 = getelementptr inbounds nuw i8, ptr %0, i64 96
  %57 = load ptr, ptr %56, align 8
  %58 = zext nneg i32 %24 to i64
  %59 = getelementptr inbounds nuw ptr, ptr %57, i64 %58
  br i1 %55, label %60, label %62

60:                                               ; preds = %54
  %61 = load ptr, ptr %59, align 8
  store ptr %61, ptr %57, align 8
  br label %66

62:                                               ; preds = %54
  %63 = sub i32 %50, %24
  %64 = sext i32 %63 to i64
  %65 = shl nsw i64 %64, 3
  tail call void @llvm.memmove.p0.p0.i64(ptr align 8 %57, ptr nonnull align 8 %59, i64 %65, i1 false)
  br label %66

66:                                               ; preds = %62, %60
  store i32 0, ptr %33, align 8
  %67 = load i32, ptr %8, align 4
  %68 = sub i32 %67, %24
  store i32 %68, ptr %8, align 4
  %69 = load i32, ptr %10, align 4
  %70 = icmp sgt i32 %69, 0
  br i1 %70, label %.lr.ph66, label %.loopexit

.lr.ph66:                                         ; preds = %66
  %71 = getelementptr inbounds nuw i8, ptr %0, i64 120
  br label %72

72:                                               ; preds = %.lr.ph66, %83
  %73 = phi i32 [ %69, %.lr.ph66 ], [ %84, %83 ]
  %indvars.iv72 = phi i64 [ 0, %.lr.ph66 ], [ %indvars.iv.next73, %83 ]
  %74 = load ptr, ptr %71, align 8
  %75 = getelementptr inbounds nuw %struct.TSReadPointer, ptr %74, i64 %indvars.iv72
  %76 = getelementptr inbounds nuw i8, ptr %75, i64 4
  %77 = load i8, ptr %76, align 4, !range !4, !noundef !5
  %78 = trunc nuw i8 %77 to i1
  br i1 %78, label %83, label %79

79:                                               ; preds = %72
  %80 = getelementptr inbounds nuw i8, ptr %75, i64 8
  %81 = load i32, ptr %80, align 8
  %82 = sub i32 %81, %24
  store i32 %82, ptr %80, align 8
  %.pre75 = load i32, ptr %10, align 4
  br label %83

83:                                               ; preds = %72, %79
  %84 = phi i32 [ %73, %72 ], [ %.pre75, %79 ]
  %indvars.iv.next73 = add nuw nsw i64 %indvars.iv72, 1
  %85 = sext i32 %84 to i64
  %86 = icmp slt i64 %indvars.iv.next73, %85
  br i1 %86, label %72, label %.loopexit, !llvm.loop !18

.loopexit:                                        ; preds = %83, %66, %._crit_edge63, %._crit_edge, %5, %1
  ret void
}